target datalayout = "e-m:e-p270:32:32-p271:32:32-p272:64:64-i64:64-i128:128-f80:128-n8:16:32:64-S128"
target triple = "x86_64-pc-linux-gnu"

%struct.AVDictionaryEntry = type { ptr, ptr }

; Function Attrs: nounwind uwtable
define internal void @write_escape_str(ptr noundef %0, ptr noundef %1) #0 {
  %3 = alloca ptr, align 8
  %4 = alloca ptr, align 8
  %5 = alloca ptr, align 8
  store ptr %0, ptr %3, align 8, !tbaa !54
  store ptr %1, ptr %4, align 8, !tbaa !62
  call void @llvm.lifetime.start.p0(i64 8, ptr %5) #3
  %6 = load ptr, ptr %4, align 8, !tbaa !62
  store ptr %6, ptr %5, align 8, !tbaa !62
  br label %7

7:                                                ; preds = %38, %2
  %8 = load ptr, ptr %5, align 8, !tbaa !62
  %9 = load i8, ptr %8, align 1, !tbaa !63
  %10 = icmp ne i8 %9, 0
  br i1 %10, label %11, label %45

11:                                               ; preds = %7
  %12 = load ptr, ptr %5, align 8, !tbaa !62
  %13 = load i8, ptr %12, align 1, !tbaa !63
  %14 = zext i8 %13 to i32
  %15 = icmp eq i32 %14, 35
  br i1 %15, label %36, label %16

16:                                               ; preds = %11
  %17 = load ptr, ptr %5, align 8, !tbaa !62
  %18 = load i8, ptr %17, align 1, !tbaa !63
  %19 = zext i8 %18 to i32
  %20 = icmp eq i32 %19, 59
  br i1 %20, label %36, label %21

21:                                               ; preds = %16
  %22 = load ptr, ptr %5, align 8, !tbaa !62
  %23 = load i8, ptr %22, align 1, !tbaa !63
  %24 = zext i8 %23 to i32
  %25 = icmp eq i32 %24, 61
  br i1 %25, label %36, label %26

26:                                               ; preds = %21
  %27 = load ptr, ptr %5, align 8, !tbaa !62
  %28 = load i8, ptr %27, align 1, !tbaa !63
  %29 = zext i8 %28 to i32
  %30 = icmp eq i32 %29, 92
  br i1 %30, label %36, label %31

31:                                               ; preds = %26
  %32 = load ptr, ptr %5, align 8, !tbaa !62
  %33 = load i8, ptr %32, align 1, !tbaa !63
  %34 = zext i8 %33 to i32
  %35 = icmp eq i32 %34, 10
  br i1 %35, label %36, label %38

36:                                               ; preds = %31, %26, %21, %16, %11
  %37 = load ptr, ptr %3, align 8, !tbaa !54
  call void @avio_w8(ptr noundef %37, i32 noundef 92)
  br label %38

38:                                               ; preds = %36, %31
  %39 = load ptr, ptr %3, align 8, !tbaa !54
  %40 = load ptr, ptr %5, align 8, !tbaa !62
  %41 = load i8, ptr %40, align 1, !tbaa !63
  %42 = zext i8 %41 to i32
  call void @avio_w8(ptr noundef %39, i32 noundef %42)
  %43 = load ptr, ptr %5, align 8, !tbaa !62
  %44 = getelementptr inbounds nuw i8, ptr %43, i32 1
  store ptr %44, ptr %5, align 8, !tbaa !62
  br label %7, !llvm.loop !64

45:                                               ; preds = %7
  call void @llvm.lifetime.end.p0(i64 8, ptr %5) #3
  ret void
}

; Function Attrs: nounwind uwtable
define internal void @write_tags(ptr noundef %0, ptr noundef %1) #0 {
  %3 = alloca ptr, align 8
  %4 = alloca ptr, align 8
  %5 = alloca ptr, align 8
  store ptr %0, ptr %3, align 8, !tbaa !54
  store ptr %1, ptr %4, align 8, !tbaa !55
  call void @llvm.lifetime.start.p0(i64 8, ptr %5) #3
  store ptr null, ptr %5, align 8, !tbaa !56
  br label %6

6:                                                ; preds = %11, %2
  %7 = load ptr, ptr %4, align 8, !tbaa !55
  %8 = load ptr, ptr %5, align 8, !tbaa !56
  %9 = call ptr @av_dict_iterate(ptr noundef %7, ptr noundef %8)
  store ptr %9, ptr %5, align 8, !tbaa !56
  %10 = icmp ne ptr %9, null
  br i1 %10, label %11, label %22

11:                                               ; preds = %6
  %12 = load ptr, ptr %3, align 8, !tbaa !54
  %13 = load ptr, ptr %5, align 8, !tbaa !56
  %14 = getelementptr inbounds nuw %struct.AVDictionaryEntry, ptr %13, i32 0, i32 0
  %15 = load ptr, ptr %14, align 8, !tbaa !58
  call void @write_escape_str(ptr noundef %12, ptr noundef %15)
  %16 = load ptr, ptr %3, align 8, !tbaa !54
  call void @avio_w8(ptr noundef %16, i32 noundef 61)
  %17 = load ptr, ptr %3, align 8, !tbaa !54
  %18 = load ptr, ptr %5, align 8, !tbaa !56
  %19 = getelementptr inbounds nuw %struct.AVDictionaryEntry, ptr %18, i32 0, i32 1
  %20 = load ptr, ptr %19, align 8, !tbaa !60
  call void @write_escape_str(ptr noundef %17, ptr noundef %20)
  %21 = load ptr, ptr %3, align 8, !tbaa !54
  call void @avio_w8(ptr noundef %21, i32 noundef 10)
  br label %6, !llvm.loop !61

22:                                               ; preds = %6
  call void @llvm.lifetime.end.p0(i64 8, ptr %5) #3
  ret void
}