; Function Attrs: nounwind uwtable
define internal fastcc void @write_tags(ptr noundef %0, ptr noundef %1) unnamed_addr #0 {
  %3 = tail call ptr @av_dict_iterate(ptr noundef %1, ptr noundef null) #3
  %.not12 = icmp eq ptr %3, null
  br i1 %.not12, label %._crit_edge, label %.lr.ph

.lr.ph:                                           ; preds = %2, %write_escape_str.exit11
  %4 = phi ptr [ %22, %write_escape_str.exit11 ], [ %3, %2 ]
  %5 = load ptr, ptr %4, align 8, !tbaa !49
  br label %6

6:                                                ; preds = %9, %.lr.ph
  %.0.i = phi ptr [ %5, %.lr.ph ], [ %12, %9 ]
  %7 = load i8, ptr %.0.i, align 1, !tbaa !51
  switch i8 %7, label %9 [
    i8 0, label %write_escape_str.exit
    i8 35, label %8
    i8 59, label %8
    i8 61, label %8
    i8 92, label %8
    i8 10, label %8
  ]

8:                                                ; preds = %6, %6, %6, %6, %6
  tail call void @avio_w8(ptr noundef %0, i32 noundef 92) #3
  %.pre.i = load i8, ptr %.0.i, align 1, !tbaa !51
  br label %9

9:                                                ; preds = %8, %6
  %10 = phi i8 [ %7, %6 ], [ %.pre.i, %8 ]
  %11 = zext i8 %10 to i32
  tail call void @avio_w8(ptr noundef %0, i32 noundef %11) #3
  %12 = getelementptr inbounds nuw i8, ptr %.0.i, i64 1
  br label %6, !llvm.loop !52

write_escape_str.exit:                            ; preds = %6
  tail call void @avio_w8(ptr noundef %0, i32 noundef 61) #3
  %13 = getelementptr inbounds nuw i8, ptr %4, i64 8
  %14 = load ptr, ptr %13, align 8, !tbaa !53
  br label %15

15:                                               ; preds = %18, %write_escape_str.exit
  %.0.i9 = phi ptr [ %14, %write_escape_str.exit ], [ %21, %18 ]
  %16 = load i8, ptr %.0.i9, align 1, !tbaa !51
  switch i8 %16, label %18 [
    i8 0, label %write_escape_str.exit11
    i8 35, label %17
    i8 59, label %17
    i8 61, label %17
    i8 92, label %17
    i8 10, label %17
  ]

17:                                               ; preds = %15, %15, %15, %15, %15
  tail call void @avio_w8(ptr noundef %0, i32 noundef 92) #3
  %.pre.i10 = load i8, ptr %.0.i9, align 1, !tbaa !51
  br label %18

18:                                               ; preds = %17, %15
  %19 = phi i8 [ %16, %15 ], [ %.pre.i10, %17 ]
  %20 = zext i8 %19 to i32
  tail call void @avio_w8(ptr noundef %0, i32 noundef %20) #3
  %21 = getelementptr inbounds nuw i8, ptr %.0.i9, i64 1
  br label %15, !llvm.loop !52

write_escape_str.exit11:                          ; preds = %15
  tail call void @avio_w8(ptr noundef %0, i32 noundef 10) #3
  %22 = tail call ptr @av_dict_iterate(ptr noundef %1, ptr noundef nonnull %4) #3
  %.not = icmp eq ptr %22, null
  br i1 %.not, label %._crit_edge, label %.lr.ph, !llvm.loop !54

._crit_edge:                                      ; preds = %write_escape_str.exit11, %2
  ret void
}